; Function Attrs: nounwind uwtable
define ptr @Gia_PermuteSpecial(ptr noundef %0) local_unnamed_addr #0 {
  %2 = tail call ptr @Gia_PermuteSpecialOrder(ptr noundef %0)
  %3 = getelementptr i8, ptr %0, i64 16
  %.val = load i32, ptr %3, align 8, !tbaa !34
  %4 = getelementptr i8, ptr %0, i64 64
  %.val7 = load ptr, ptr %4, align 8, !tbaa !35
  %5 = getelementptr i8, ptr %.val7, i64 4
  %.val7.val = load i32, ptr %5, align 4, !tbaa !36
  %6 = sub nsw i32 %.val7.val, %.val
  %7 = tail call noalias dereferenceable_or_null(16) ptr @malloc(i64 noundef 16) #19
  %8 = getelementptr inbounds nuw i8, ptr %7, i64 4
  store i32 %6, ptr %8, align 4, !tbaa !36
  store i32 %6, ptr %7, align 8, !tbaa !37
  %9 = getelementptr inbounds nuw i8, ptr %7, i64 8
  store ptr %2, ptr %9, align 8, !tbaa !38
  %10 = tail call ptr @Gia_ManDupPerm(ptr noundef %0, ptr noundef nonnull %7) #18
  %11 = load ptr, ptr %9, align 8, !tbaa !38
  %.not.i = icmp eq ptr %11, null
  br i1 %.not.i, label %Vec_IntFree.exit, label %12

12:                                               ; preds = %1
  tail call void @free(ptr noundef nonnull %11) #18
  br label %Vec_IntFree.exit

Vec_IntFree.exit:                                 ; preds = %1, %12
  tail call void @free(ptr noundef nonnull %7) #18
  ret ptr %10
}